target datalayout = "e-m:e-p270:32:32-p271:32:32-p272:64:64-i64:64-i128:128-f80:128-n8:16:32:64-S128"
target triple = "x86_64-unknown-linux-gnu"

%"struct.node::AssertionInfo" = type { ptr, ptr, ptr }
%struct.uv_udp_send_s = type { ptr, i32, [6 x ptr], ptr, ptr, %struct.uv__queue, %struct.sockaddr_storage, i32, ptr, i64, ptr, [4 x %struct.uv_buf_t] }
%struct.uv__queue = type { ptr, ptr }
%struct.sockaddr_storage = type { i16, [118 x i8], i64 }
%struct.uv_buf_t = type { ptr, i64 }
%"class.node::UDPWrapBase" = type { ptr, ptr }
%class.anon = type { i8 }
%"class.node::ContainerOfHelper" = type { ptr }
%"class.node::ContainerOfHelper.374" = type { ptr }

@_ZZNK4node11UDPWrapBase8listenerEvE4args = internal constant %"struct.node::AssertionInfo" { ptr @.str, ptr @.str.1, ptr @.str.2 }, align 8

; Function Attrs: mustprogress nounwind uwtable
define linkonce_odr dso_local noundef i64 @_ZN4node8OffsetOfI13uv_udp_send_sNS_7ReqWrapIS1_EEEEmMT0_T_(i64 %field) #4 comdat {
entry:
  %field.addr = alloca i64, align 8
  store i64 %field, ptr %field.addr, align 8
  %0 = load i64, ptr %field.addr, align 8
  %memptr.offset = getelementptr inbounds i8, ptr null, i64 %0
  %1 = ptrtoint ptr %memptr.offset to i64
  ret i64 %1
}

; Function Attrs: mustprogress nounwind uwtable
define linkonce_odr dso_local void @_ZN4node17ContainerOfHelperI13uv_udp_send_sNS_7ReqWrapIS1_EEEC2EMS3_S1_PS1_(ptr noundef nonnull align 8 dereferenceable(8) %this, i64 %field, ptr noundef %pointer) unnamed_addr #4 comdat align 2 {
entry:
  %this.addr = alloca ptr, align 8
  %field.addr = alloca i64, align 8
  %pointer.addr = alloca ptr, align 8
  store ptr %this, ptr %this.addr, align 8
  store i64 %field, ptr %field.addr, align 8
  store ptr %pointer, ptr %pointer.addr, align 8
  %this1 = load ptr, ptr %this.addr, align 8
  %pointer_ = getelementptr inbounds %"class.node::ContainerOfHelper.374", ptr %this1, i32 0, i32 0
  %0 = load ptr, ptr %pointer.addr, align 8
  %1 = ptrtoint ptr %0 to i64
  %2 = load i64, ptr %field.addr, align 8
  %call = call noundef i64 @_ZN4node8OffsetOfI13uv_udp_send_sNS_7ReqWrapIS1_EEEEmMT0_T_(i64 %2)
  %sub = sub i64 %1, %call
  %3 = inttoptr i64 %sub to ptr
  store ptr %3, ptr %pointer_, align 8
  ret void
}

; Function Attrs: mustprogress nounwind uwtable
define linkonce_odr dso_local noundef i64 @_ZN4node8OffsetOfI8uv_udp_sNS_7UDPWrapEEEmMT0_T_(i64 %field) #4 comdat {
entry:
  %field.addr = alloca i64, align 8
  store i64 %field, ptr %field.addr, align 8
  %0 = load i64, ptr %field.addr, align 8
  %memptr.offset = getelementptr inbounds i8, ptr null, i64 %0
  %1 = ptrtoint ptr %memptr.offset to i64
  ret i64 %1
}

; Function Attrs: mustprogress nounwind uwtable
define linkonce_odr dso_local noundef ptr @_ZNK4node17ContainerOfHelperI13uv_udp_send_sNS_7ReqWrapIS1_EEEcvPT_IS3_EEv(ptr noundef nonnull align 8 dereferenceable(8) %this) #4 comdat align 2 {
entry:
  %this.addr = alloca ptr, align 8
  store ptr %this, ptr %this.addr, align 8
  %this1 = load ptr, ptr %this.addr, align 8
  %pointer_ = getelementptr inbounds %"class.node::ContainerOfHelper.374", ptr %this1, i32 0, i32 0
  %0 = load ptr, ptr %pointer_, align 8
  ret ptr %0
}

; Function Attrs: mustprogress nounwind uwtable
define linkonce_odr dso_local ptr @_ZN4node11ContainerOfI13uv_udp_send_sNS_7ReqWrapIS1_EEEENS_17ContainerOfHelperIT_T0_EEMS6_S5_PS5_(i64 %field, ptr noundef %pointer) #4 comdat {
entry:
  %retval = alloca %"class.node::ContainerOfHelper.374", align 8
  %field.addr = alloca i64, align 8
  %pointer.addr = alloca ptr, align 8
  store i64 %field, ptr %field.addr, align 8
  store ptr %pointer, ptr %pointer.addr, align 8
  %0 = load i64, ptr %field.addr, align 8
  %1 = load ptr, ptr %pointer.addr, align 8
  call void @_ZN4node17ContainerOfHelperI13uv_udp_send_sNS_7ReqWrapIS1_EEEC2EMS3_S1_PS1_(ptr noundef nonnull align 8 dereferenceable(8) %retval, i64 %0, ptr noundef %1)
  %coerce.dive = getelementptr inbounds %"class.node::ContainerOfHelper.374", ptr %retval, i32 0, i32 0
  %2 = load ptr, ptr %coerce.dive, align 8
  ret ptr %2
}

; Function Attrs: mustprogress nounwind uwtable
define linkonce_odr dso_local void @_ZN4node17ContainerOfHelperI8uv_udp_sNS_7UDPWrapEEC2EMS2_S1_PS1_(ptr noundef nonnull align 8 dereferenceable(8) %this, i64 %field, ptr noundef %pointer) unnamed_addr #4 comdat align 2 {
entry:
  %this.addr = alloca ptr, align 8
  %field.addr = alloca i64, align 8
  %pointer.addr = alloca ptr, align 8
  store ptr %this, ptr %this.addr, align 8
  store i64 %field, ptr %field.addr, align 8
  store ptr %pointer, ptr %pointer.addr, align 8
  %this1 = load ptr, ptr %this.addr, align 8
  %pointer_ = getelementptr inbounds %"class.node::ContainerOfHelper", ptr %this1, i32 0, i32 0
  %0 = load ptr, ptr %pointer.addr, align 8
  %1 = ptrtoint ptr %0 to i64
  %2 = load i64, ptr %field.addr, align 8
  %call = call noundef i64 @_ZN4node8OffsetOfI8uv_udp_sNS_7UDPWrapEEEmMT0_T_(i64 %2)
  %sub = sub i64 %1, %call
  %3 = inttoptr i64 %sub to ptr
  store ptr %3, ptr %pointer_, align 8
  ret void
}

; Function Attrs: mustprogress nounwind uwtable
define linkonce_odr dso_local noundef ptr @_ZN4node7ReqWrapI13uv_udp_send_sE8from_reqEPS1_(ptr noundef %req) #4 comdat align 2 {
entry:
  %req.addr = alloca ptr, align 8
  %ref.tmp = alloca %"class.node::ContainerOfHelper.374", align 8
  store ptr %req, ptr %req.addr, align 8
  %0 = load ptr, ptr %req.addr, align 8
  %call = call ptr @_ZN4node11ContainerOfI13uv_udp_send_sNS_7ReqWrapIS1_EEEENS_17ContainerOfHelperIT_T0_EEMS6_S5_PS5_(i64 88, ptr noundef %0)
  %coerce.dive = getelementptr inbounds %"class.node::ContainerOfHelper.374", ptr %ref.tmp, i32 0, i32 0
  store ptr %call, ptr %coerce.dive, align 8
  %call1 = call noundef ptr @_ZNK4node17ContainerOfHelperI13uv_udp_send_sNS_7ReqWrapIS1_EEEcvPT_IS3_EEv(ptr noundef nonnull align 8 dereferenceable(8) %ref.tmp)
  ret ptr %call1
}

; Function Attrs: mustprogress nounwind uwtable
define dso_local noundef ptr @_ZNK4node11UDPWrapBase8listenerEv(ptr noundef nonnull align 8 dereferenceable(16) %this) #4 align 2 {
entry:
  %this.addr = alloca ptr, align 8
  store ptr %this, ptr %this.addr, align 8
  %this1 = load ptr, ptr %this.addr, align 8
  br label %do.body

do.body:                                          ; preds = %entry
  %listener_ = getelementptr inbounds %"class.node::UDPWrapBase", ptr %this1, i32 0, i32 1
  %0 = load ptr, ptr %listener_, align 8
  %cmp = icmp ne ptr %0, null
  %lnot = xor i1 %cmp, true
  %lnot2 = xor i1 %lnot, true
  %lnot3 = xor i1 %lnot2, true
  br i1 %lnot3, label %if.then, label %if.end

if.then:                                          ; preds = %do.body
  br label %do.body4

do.body4:                                         ; preds = %if.then
  call void @_ZN4node6AssertERKNS_13AssertionInfoE(ptr noundef nonnull align 8 dereferenceable(24) @_ZZNK4node11UDPWrapBase8listenerEvE4args)
  call void @abort() #13
  unreachable

do.end:                                           ; No predecessors!
  br label %if.end

if.end:                                           ; preds = %do.end, %do.body
  br label %do.end5

do.end5:                                          ; preds = %if.end
  %listener_6 = getelementptr inbounds %"class.node::UDPWrapBase", ptr %this1, i32 0, i32 1
  %1 = load ptr, ptr %listener_6, align 8
  ret ptr %1
}

; Function Attrs: mustprogress nounwind uwtable
define linkonce_odr dso_local noundef ptr @_ZNK4node17ContainerOfHelperI8uv_udp_sNS_7UDPWrapEEcvPT_IS2_EEv(ptr noundef nonnull align 8 dereferenceable(8) %this) #4 comdat align 2 {
entry:
  %this.addr = alloca ptr, align 8
  store ptr %this, ptr %this.addr, align 8
  %this1 = load ptr, ptr %this.addr, align 8
  %pointer_ = getelementptr inbounds %"class.node::ContainerOfHelper", ptr %this1, i32 0, i32 0
  %0 = load ptr, ptr %pointer_, align 8
  ret ptr %0
}

; Function Attrs: mustprogress nounwind uwtable
define linkonce_odr dso_local ptr @_ZN4node11ContainerOfI8uv_udp_sNS_7UDPWrapEEENS_17ContainerOfHelperIT_T0_EEMS5_S4_PS4_(i64 %field, ptr noundef %pointer) #4 comdat {
entry:
  %retval = alloca %"class.node::ContainerOfHelper", align 8
  %field.addr = alloca i64, align 8
  %pointer.addr = alloca ptr, align 8
  store i64 %field, ptr %field.addr, align 8
  store ptr %pointer, ptr %pointer.addr, align 8
  %0 = load i64, ptr %field.addr, align 8
  %1 = load ptr, ptr %pointer.addr, align 8
  call void @_ZN4node17ContainerOfHelperI8uv_udp_sNS_7UDPWrapEEC2EMS2_S1_PS1_(ptr noundef nonnull align 8 dereferenceable(8) %retval, i64 %0, ptr noundef %1)
  %coerce.dive = getelementptr inbounds %"class.node::ContainerOfHelper", ptr %retval, i32 0, i32 0
  %2 = load ptr, ptr %coerce.dive, align 8
  ret ptr %2
}

; Function Attrs: mustprogress nounwind uwtable
define internal void @"_ZZN4node7UDPWrap4SendEP8uv_buf_tmPK8sockaddrENK3$_0clEP13uv_udp_send_si"(ptr noundef nonnull align 1 dereferenceable(1) %this, ptr noundef %req, i32 noundef %status) #4 align 2 {
entry:
  %this.addr = alloca ptr, align 8
  %req.addr = alloca ptr, align 8
  %status.addr = alloca i32, align 4
  %self = alloca ptr, align 8
  %ref.tmp = alloca %"class.node::ContainerOfHelper", align 8
  store ptr %this, ptr %this.addr, align 8
  store ptr %req, ptr %req.addr, align 8
  store i32 %status, ptr %status.addr, align 4
  %0 = load ptr, ptr %req.addr, align 8
  %handle = getelementptr inbounds %struct.uv_udp_send_s, ptr %0, i32 0, i32 3
  %1 = load ptr, ptr %handle, align 8
  %call = call ptr @_ZN4node11ContainerOfI8uv_udp_sNS_7UDPWrapEEENS_17ContainerOfHelperIT_T0_EEMS5_S4_PS4_(i64 120, ptr noundef %1)
  %coerce.dive = getelementptr inbounds %"class.node::ContainerOfHelper", ptr %ref.tmp, i32 0, i32 0
  store ptr %call, ptr %coerce.dive, align 8
  %call2 = call noundef ptr @_ZNK4node17ContainerOfHelperI8uv_udp_sNS_7UDPWrapEEcvPT_IS2_EEv(ptr noundef nonnull align 8 dereferenceable(8) %ref.tmp)
  store ptr %call2, ptr %self, align 8
  %2 = load ptr, ptr %self, align 8
  %add.ptr = getelementptr inbounds i8, ptr %2, i64 88
  %call3 = call noundef ptr @_ZNK4node11UDPWrapBase8listenerEv(ptr noundef nonnull align 8 dereferenceable(16) %add.ptr)
  %3 = load ptr, ptr %req.addr, align 8
  %call4 = call noundef ptr @_ZN4node7ReqWrapI13uv_udp_send_sE8from_reqEPS1_(ptr noundef %3)
  %4 = load i32, ptr %status.addr, align 4
  %vtable = load ptr, ptr %call3, align 8
  %vfn = getelementptr inbounds ptr, ptr %vtable, i64 5
  %5 = load ptr, ptr %vfn, align 8
  call void %5(ptr noundef nonnull align 8 dereferenceable(16) %call3, ptr noundef %call4, i32 noundef %4)
  ret void
}

; Function Attrs: mustprogress nounwind uwtable
define internal void @"_ZZN4node7UDPWrap4SendEP8uv_buf_tmPK8sockaddrEN3$_08__invokeEP13uv_udp_send_si"(ptr noundef %req, i32 noundef %status) #4 align 2 {
entry:
  %req.addr = alloca ptr, align 8
  %status.addr = alloca i32, align 4
  %unused.capture = alloca %class.anon, align 1
  store ptr %req, ptr %req.addr, align 8
  store i32 %status, ptr %status.addr, align 4
  %0 = load ptr, ptr %req.addr, align 8
  %1 = load i32, ptr %status.addr, align 4
  call void @"_ZZN4node7UDPWrap4SendEP8uv_buf_tmPK8sockaddrENK3$_0clEP13uv_udp_send_si"(ptr noundef nonnull align 1 dereferenceable(1) %unused.capture, ptr noundef %0, i32 noundef %1)
  ret void
}