; Function Attrs: mustprogress nounwind uwtable
define internal void @"_ZZN4node7UDPWrap4SendEP8uv_buf_tmPK8sockaddrEN3$_08__invokeEP13uv_udp_send_si"(ptr noundef %req, i32 noundef %status) #3 align 2 {
entry:
  %handle.i = getelementptr inbounds i8, ptr %req, i64 64
  %0 = load ptr, ptr %handle.i, align 8
  %1 = ptrtoint ptr %0 to i64
  %sub.i.i.i = add i64 %1, -120
  %2 = inttoptr i64 %sub.i.i.i to ptr
  %listener_.i.i = getelementptr inbounds i8, ptr %2, i64 96
  %3 = load ptr, ptr %listener_.i.i, align 8
  %cmp.not.i.i = icmp eq ptr %3, null
  br i1 %cmp.not.i.i, label %do.body4.i.i, label %"_ZZN4node7UDPWrap4SendEP8uv_buf_tmPK8sockaddrENK3$_0clEP13uv_udp_send_si.exit"

do.body4.i.i:                                     ; preds = %entry
  tail call void @_ZN4node6AssertERKNS_13AssertionInfoE(ptr noundef nonnull align 8 dereferenceable(24) @_ZZNK4node11UDPWrapBase8listenerEvE4args) #19
  tail call void @abort() #20
  unreachable

"_ZZN4node7UDPWrap4SendEP8uv_buf_tmPK8sockaddrENK3$_0clEP13uv_udp_send_si.exit": ; preds = %entry
  %4 = ptrtoint ptr %req to i64
  %sub.i.i.i.i = add i64 %4, -88
  %5 = inttoptr i64 %sub.i.i.i.i to ptr
  %vtable.i = load ptr, ptr %3, align 8
  %vfn.i = getelementptr inbounds i8, ptr %vtable.i, i64 40
  %6 = load ptr, ptr %vfn.i, align 8
  tail call void %6(ptr noundef nonnull align 8 dereferenceable(16) %3, ptr noundef %5, i32 noundef %status) #19
  ret void
}